; Function Attrs: mustprogress nounwind uwtable
define hidden void @_ZNK19G1HeapRegionManager7iterateEP24G1HeapRegionIndexClosure(ptr nocapture noundef nonnull readonly align 8 dereferenceable(232) %0, ptr noundef %1) local_unnamed_addr #0 align 2 {
  %3 = getelementptr inbounds i8, ptr %0, i64 112
  %4 = load i64, ptr %3, align 8
  %5 = and i64 %4, 4294967295
  %.not9 = icmp eq i64 %5, 0
  br i1 %.not9, label %.loopexit, label %.lr.ph

.lr.ph:                                           ; preds = %2
  %6 = getelementptr inbounds i8, ptr %0, i64 24
  %wide.trip.count = and i64 %4, 4294967295
  br label %7

7:                                                ; preds = %.lr.ph, %22
  %indvars.iv = phi i64 [ 0, %.lr.ph ], [ %indvars.iv.next, %22 ]
  %8 = load ptr, ptr %6, align 8
  %9 = lshr i64 %indvars.iv, 6
  %10 = getelementptr inbounds i64, ptr %8, i64 %9
  %11 = load volatile i64, ptr %10, align 8
  tail call void asm sideeffect "", "~{memory},~{dirflag},~{fpsr},~{flags}"() #16, !srcloc !11
  %12 = and i64 %indvars.iv, 63
  %13 = shl nuw i64 1, %12
  %14 = and i64 %11, %13
  %.not = icmp eq i64 %14, 0
  br i1 %.not, label %22, label %15

15:                                               ; preds = %7
  %16 = load ptr, ptr %1, align 8
  %17 = load ptr, ptr %16, align 8
  %18 = trunc nuw i64 %indvars.iv to i32
  %19 = tail call noundef zeroext i1 %17(ptr noundef nonnull align 8 dereferenceable(9) %1, i32 noundef %18) #16
  br i1 %19, label %20, label %22

20:                                               ; preds = %15
  %21 = getelementptr inbounds i8, ptr %1, i64 8
  store i8 0, ptr %21, align 8
  br label %.loopexit

22:                                               ; preds = %15, %7
  %indvars.iv.next = add nuw nsw i64 %indvars.iv, 1
  %exitcond.not = icmp eq i64 %indvars.iv.next, %wide.trip.count
  br i1 %exitcond.not, label %.loopexit, label %7, !llvm.loop !26

.loopexit:                                        ; preds = %22, %2, %20
  ret void
}